target datalayout = "e-m:e-p270:32:32-p271:32:32-p272:64:64-i64:64-i128:128-f80:128-n8:16:32:64-S128"
target triple = "x86_64-unknown-linux-gnu"

%struct.KvmInfo = type { i8, i8 }

@kvm_allowed = external global i8, align 1
@.str.12 = private unnamed_addr constant [4 x i8] c"kvm\00", align 1

; Function Attrs: nounwind sspstrong uwtable
define dso_local ptr @qmp_query_kvm(ptr noundef %errp) #0 {
entry:
  %errp.addr = alloca ptr, align 8
  %info = alloca ptr, align 8
  store ptr %errp, ptr %errp.addr, align 8
  %call = call noalias ptr @g_malloc0(i64 noundef 2) #9
  store ptr %call, ptr %info, align 8
  %0 = load i8, ptr @kvm_allowed, align 1
  %tobool = trunc i8 %0 to i1
  %1 = load ptr, ptr %info, align 8
  %enabled = getelementptr inbounds %struct.KvmInfo, ptr %1, i32 0, i32 0
  %frombool = zext i1 %tobool to i8
  store i8 %frombool, ptr %enabled, align 1
  %call1 = call ptr @accel_find(ptr noundef @.str.12)
  %tobool2 = icmp ne ptr %call1, null
  %2 = load ptr, ptr %info, align 8
  %present = getelementptr inbounds %struct.KvmInfo, ptr %2, i32 0, i32 1
  %frombool3 = zext i1 %tobool2 to i8
  store i8 %frombool3, ptr %present, align 1
  %3 = load ptr, ptr %info, align 8
  ret ptr %3
}