; Function Attrs: nounwind sspstrong uwtable
define dso_local noalias noundef ptr @qmp_query_kvm(ptr noundef readnone captures(none) %errp) local_unnamed_addr #0 {
entry:
  %call = tail call noalias dereferenceable_or_null(2) ptr @g_malloc0(i64 noundef 2) #8
  %0 = load i8, ptr @kvm_allowed, align 1
  %frombool = and i8 %0, 1
  store i8 %frombool, ptr %call, align 1
  %call1 = tail call ptr @accel_find(ptr noundef nonnull @.str.12) #7
  %tobool2 = icmp ne ptr %call1, null
  %present = getelementptr inbounds nuw i8, ptr %call, i64 1
  %frombool3 = zext i1 %tobool2 to i8
  store i8 %frombool3, ptr %present, align 1
  ret ptr %call
}